; Function Attrs: nounwind uwtable
define hidden zeroext i1 @Curl_auth_allowed_to_host(ptr noundef readonly captures(none) %0) local_unnamed_addr #0 {
  %2 = getelementptr inbounds nuw i8, ptr %0, i64 24
  %3 = load ptr, ptr %2, align 8, !tbaa !6
  %4 = getelementptr inbounds nuw i8, ptr %0, i64 5036
  %5 = load i32, ptr %4, align 4
  %6 = and i32 %5, 8
  %.not = icmp eq i32 %6, 0
  br i1 %.not, label %32, label %7

7:                                                ; preds = %1
  %8 = getelementptr inbounds nuw i8, ptr %0, i64 2658
  %9 = load i64, ptr %8, align 2
  %10 = and i64 %9, 67108864
  %.not10 = icmp eq i64 %10, 0
  br i1 %.not10, label %11, label %32

11:                                               ; preds = %7
  %12 = getelementptr inbounds nuw i8, ptr %0, i64 3208
  %13 = load ptr, ptr %12, align 8, !tbaa !76
  %.not11 = icmp eq ptr %13, null
  br i1 %.not11, label %32, label %14

14:                                               ; preds = %11
  %15 = getelementptr inbounds nuw i8, ptr %3, i64 104
  %16 = load ptr, ptr %15, align 8, !tbaa !77
  %17 = tail call i32 @curl_strequal(ptr noundef nonnull %13, ptr noundef %16) #4
  %.not12 = icmp eq i32 %17, 0
  br i1 %.not12, label %32, label %18

18:                                               ; preds = %14
  %19 = getelementptr inbounds nuw i8, ptr %0, i64 3216
  %20 = load i32, ptr %19, align 8, !tbaa !86
  %21 = getelementptr inbounds nuw i8, ptr %3, i64 1392
  %22 = load i32, ptr %21, align 8, !tbaa !87
  %23 = icmp eq i32 %20, %22
  br i1 %23, label %24, label %32

24:                                               ; preds = %18
  %25 = getelementptr inbounds nuw i8, ptr %0, i64 3220
  %26 = load i32, ptr %25, align 4, !tbaa !88
  %27 = getelementptr inbounds nuw i8, ptr %3, i64 960
  %28 = load ptr, ptr %27, align 8, !tbaa !89
  %29 = getelementptr inbounds nuw i8, ptr %28, i64 148
  %30 = load i32, ptr %29, align 4, !tbaa !90
  %31 = icmp eq i32 %26, %30
  br label %32

32:                                               ; preds = %11, %14, %18, %24, %7, %1
  %33 = phi i1 [ true, %7 ], [ true, %1 ], [ false, %18 ], [ false, %14 ], [ false, %11 ], [ %31, %24 ]
  ret i1 %33
}